target datalayout = "e-m:e-p270:32:32-p271:32:32-p272:64:64-i64:64-i128:128-f80:128-n8:16:32:64-S128"
target triple = "x86_64-pc-linux-gnu"

%struct.AVCodecContext = type { ptr, i32, i32, ptr, i32, i32, ptr, ptr, ptr, i64, i32, i32, ptr, i32, %struct.AVRational, %struct.AVRational, %struct.AVRational, i32, i32, i32, i32, i32, %struct.AVRational, i32, i32, i32, i32, i32, i32, i32, i32, i32, i32, i32, ptr, ptr, i32, float, float, float, float, float, float, float, float, float, i32, i32, i32, i32, i32, i32, i32, i32, i32, i32, i32, i32, ptr, ptr, ptr, i32, i32, i32, i32, i32, i32, i32, i32, i32, i32, %struct.AVChannelLayout, i32, i32, i32, i32, i32, i32, i32, i32, ptr, i32, i32, i32, float, float, i32, i32, i32, i32, i32, ptr, i64, i64, float, float, i32, i32, ptr, ptr, i32, i32, i32, i32, i32, ptr, ptr, ptr, ptr, i32, i32, [8 x i64], i32, i32, i32, i32, i32, i32, i32, ptr, ptr, i32, i32, i32, i32, i32, i32, i32, i32, i32, i32, ptr, ptr, i32, i32, ptr, ptr, ptr, ptr, i32, i32, i64, i32, i32, i64, ptr, i64, ptr, i32, ptr, i32 }
%struct.AVRational = type { i32, i32 }
%struct.AVChannelLayout = type { i32, i32, %union.anon.0, ptr }
%union.anon.0 = type { i64 }
%struct.AGMContext = type { ptr, ptr, %struct.GetBitContext, %struct.GetByteContext, i32, i32, i32, i32, i32, [3 x i32], i32, i32, i32, i32, i32, ptr, i32, i32, ptr, i32, %struct.VLC, ptr, [64 x i32], [64 x i32], [64 x i8], [64 x i16], ptr, i32, ptr, i32, %struct.IDCTDSPContext, [8 x i8] }
%struct.GetBitContext = type { ptr, ptr, i32, i32, i32 }
%struct.GetByteContext = type { ptr, ptr, ptr }
%struct.VLC = type { i32, ptr, i32, i32 }
%struct.IDCTDSPContext = type { ptr, ptr, ptr, ptr, ptr, ptr, [64 x i8], i32, i32 }

; Function Attrs: alwaysinline nounwind uwtable
define internal void @bytestream2_skip(ptr noundef %0, i32 noundef %1) #4 {
  %3 = alloca ptr, align 8
  %4 = alloca i32, align 4
  store ptr %0, ptr %3, align 8, !tbaa !55
  store i32 %1, ptr %4, align 4, !tbaa !60
  %5 = load ptr, ptr %3, align 8, !tbaa !55
  %6 = getelementptr inbounds nuw %struct.GetByteContext, ptr %5, i32 0, i32 1
  %7 = load ptr, ptr %6, align 8, !tbaa !91
  %8 = load ptr, ptr %3, align 8, !tbaa !55
  %9 = getelementptr inbounds nuw %struct.GetByteContext, ptr %8, i32 0, i32 0
  %10 = load ptr, ptr %9, align 8, !tbaa !89
  %11 = ptrtoint ptr %7 to i64
  %12 = ptrtoint ptr %10 to i64
  %13 = sub i64 %11, %12
  %14 = load i32, ptr %4, align 4, !tbaa !60
  %15 = zext i32 %14 to i64
  %16 = icmp sgt i64 %13, %15
  br i1 %16, label %17, label %20

17:                                               ; preds = %2
  %18 = load i32, ptr %4, align 4, !tbaa !60
  %19 = zext i32 %18 to i64
  br label %30

20:                                               ; preds = %2
  %21 = load ptr, ptr %3, align 8, !tbaa !55
  %22 = getelementptr inbounds nuw %struct.GetByteContext, ptr %21, i32 0, i32 1
  %23 = load ptr, ptr %22, align 8, !tbaa !91
  %24 = load ptr, ptr %3, align 8, !tbaa !55
  %25 = getelementptr inbounds nuw %struct.GetByteContext, ptr %24, i32 0, i32 0
  %26 = load ptr, ptr %25, align 8, !tbaa !89
  %27 = ptrtoint ptr %23 to i64
  %28 = ptrtoint ptr %26 to i64
  %29 = sub i64 %27, %28
  br label %30

30:                                               ; preds = %20, %17
  %31 = phi i64 [ %19, %17 ], [ %29, %20 ]
  %32 = load ptr, ptr %3, align 8, !tbaa !55
  %33 = getelementptr inbounds nuw %struct.GetByteContext, ptr %32, i32 0, i32 0
  %34 = load ptr, ptr %33, align 8, !tbaa !89
  %35 = getelementptr inbounds i8, ptr %34, i64 %31
  store ptr %35, ptr %33, align 8, !tbaa !89
  ret void
}

; Function Attrs: nounwind uwtable
define internal i32 @decode_intra(ptr noundef %0, ptr noundef %1, ptr noundef %2) #1 {
  %4 = alloca i32, align 4
  %5 = alloca ptr, align 8
  %6 = alloca ptr, align 8
  %7 = alloca ptr, align 8
  %8 = alloca ptr, align 8
  %9 = alloca i32, align 4
  %10 = alloca i32, align 4
  store ptr %0, ptr %5, align 8, !tbaa !4
  store ptr %1, ptr %6, align 8, !tbaa !53
  store ptr %2, ptr %7, align 8, !tbaa !49
  call void @llvm.lifetime.start.p0(i64 8, ptr %8) #10
  %11 = load ptr, ptr %5, align 8, !tbaa !4
  %12 = getelementptr inbounds nuw %struct.AVCodecContext, ptr %11, i32 0, i32 6
  %13 = load ptr, ptr %12, align 8, !tbaa !9
  store ptr %13, ptr %8, align 8, !tbaa !29
  call void @llvm.lifetime.start.p0(i64 4, ptr %9) #10
  %14 = load ptr, ptr %8, align 8, !tbaa !29
  %15 = load ptr, ptr %8, align 8, !tbaa !29
  %16 = getelementptr inbounds nuw %struct.AGMContext, ptr %15, i32 0, i32 6
  %17 = load i32, ptr %16, align 16, !tbaa !75
  %18 = mul nsw i32 2, %17
  %19 = sub nsw i32 %18, 100
  %20 = sitofp i32 %19 to double
  %21 = fdiv nsz double %20, 1.000000e+02
  call void @compute_quant_matrix(ptr noundef %14, double noundef %21)
  %22 = load ptr, ptr %5, align 8, !tbaa !4
  %23 = getelementptr inbounds nuw %struct.AVCodecContext, ptr %22, i32 0, i32 20
  %24 = load i32, ptr %23, align 8, !tbaa !83
  %25 = ashr i32 %24, 3
  %26 = load ptr, ptr %8, align 8, !tbaa !29
  %27 = getelementptr inbounds nuw %struct.AGMContext, ptr %26, i32 0, i32 7
  store i32 %25, ptr %27, align 4, !tbaa !104
  %28 = load ptr, ptr %5, align 8, !tbaa !4
  %29 = getelementptr inbounds nuw %struct.AVCodecContext, ptr %28, i32 0, i32 21
  %30 = load i32, ptr %29, align 4, !tbaa !81
  %31 = ashr i32 %30, 3
  %32 = load ptr, ptr %8, align 8, !tbaa !29
  %33 = getelementptr inbounds nuw %struct.AGMContext, ptr %32, i32 0, i32 8
  store i32 %31, ptr %33, align 8, !tbaa !105
  %34 = load ptr, ptr %8, align 8, !tbaa !29
  %35 = load ptr, ptr %6, align 8, !tbaa !53
  %36 = load ptr, ptr %8, align 8, !tbaa !29
  %37 = getelementptr inbounds nuw %struct.AGMContext, ptr %36, i32 0, i32 9
  %38 = getelementptr inbounds [3 x i32], ptr %37, i64 0, i64 0
  %39 = load i32, ptr %38, align 4, !tbaa !60
  %40 = load ptr, ptr %8, align 8, !tbaa !29
  %41 = getelementptr inbounds nuw %struct.AGMContext, ptr %40, i32 0, i32 22
  %42 = getelementptr inbounds [64 x i32], ptr %41, i64 0, i64 0
  %43 = load ptr, ptr %7, align 8, !tbaa !49
  %44 = call i32 @decode_intra_plane(ptr noundef %34, ptr noundef %35, i32 noundef %39, ptr noundef %42, ptr noundef %43, i32 noundef 0)
  store i32 %44, ptr %9, align 4, !tbaa !60
  %45 = load i32, ptr %9, align 4, !tbaa !60
  %46 = icmp slt i32 %45, 0
  br i1 %46, label %47, label %49

47:                                               ; preds = %3
  %48 = load i32, ptr %9, align 4, !tbaa !60
  store i32 %48, ptr %4, align 4
  store i32 1, ptr %10, align 4
  br label %118

49:                                               ; preds = %3
  %50 = load ptr, ptr %8, align 8, !tbaa !29
  %51 = getelementptr inbounds nuw %struct.AGMContext, ptr %50, i32 0, i32 3
  %52 = load ptr, ptr %8, align 8, !tbaa !29
  %53 = getelementptr inbounds nuw %struct.AGMContext, ptr %52, i32 0, i32 9
  %54 = getelementptr inbounds [3 x i32], ptr %53, i64 0, i64 0
  %55 = load i32, ptr %54, align 4, !tbaa !60
  call void @bytestream2_skip(ptr noundef %51, i32 noundef %55)
  %56 = load ptr, ptr %5, align 8, !tbaa !4
  %57 = getelementptr inbounds nuw %struct.AVCodecContext, ptr %56, i32 0, i32 20
  %58 = load i32, ptr %57, align 8, !tbaa !83
  %59 = ashr i32 %58, 4
  %60 = load ptr, ptr %8, align 8, !tbaa !29
  %61 = getelementptr inbounds nuw %struct.AGMContext, ptr %60, i32 0, i32 7
  store i32 %59, ptr %61, align 4, !tbaa !104
  %62 = load ptr, ptr %5, align 8, !tbaa !4
  %63 = getelementptr inbounds nuw %struct.AVCodecContext, ptr %62, i32 0, i32 21
  %64 = load i32, ptr %63, align 4, !tbaa !81
  %65 = ashr i32 %64, 4
  %66 = load ptr, ptr %8, align 8, !tbaa !29
  %67 = getelementptr inbounds nuw %struct.AGMContext, ptr %66, i32 0, i32 8
  store i32 %65, ptr %67, align 8, !tbaa !105
  %68 = load ptr, ptr %8, align 8, !tbaa !29
  %69 = load ptr, ptr %6, align 8, !tbaa !53
  %70 = load ptr, ptr %8, align 8, !tbaa !29
  %71 = getelementptr inbounds nuw %struct.AGMContext, ptr %70, i32 0, i32 9
  %72 = getelementptr inbounds [3 x i32], ptr %71, i64 0, i64 1
  %73 = load i32, ptr %72, align 4, !tbaa !60
  %74 = load ptr, ptr %8, align 8, !tbaa !29
  %75 = getelementptr inbounds nuw %struct.AGMContext, ptr %74, i32 0, i32 23
  %76 = getelementptr inbounds [64 x i32], ptr %75, i64 0, i64 0
  %77 = load ptr, ptr %7, align 8, !tbaa !49
  %78 = call i32 @decode_intra_plane(ptr noundef %68, ptr noundef %69, i32 noundef %73, ptr noundef %76, ptr noundef %77, i32 noundef 2)
  store i32 %78, ptr %9, align 4, !tbaa !60
  %79 = load i32, ptr %9, align 4, !tbaa !60
  %80 = icmp slt i32 %79, 0
  br i1 %80, label %81, label %83

81:                                               ; preds = %49
  %82 = load i32, ptr %9, align 4, !tbaa !60
  store i32 %82, ptr %4, align 4
  store i32 1, ptr %10, align 4
  br label %118

83:                                               ; preds = %49
  %84 = load ptr, ptr %8, align 8, !tbaa !29
  %85 = getelementptr inbounds nuw %struct.AGMContext, ptr %84, i32 0, i32 3
  %86 = load ptr, ptr %8, align 8, !tbaa !29
  %87 = getelementptr inbounds nuw %struct.AGMContext, ptr %86, i32 0, i32 9
  %88 = getelementptr inbounds [3 x i32], ptr %87, i64 0, i64 1
  %89 = load i32, ptr %88, align 4, !tbaa !60
  call void @bytestream2_skip(ptr noundef %85, i32 noundef %89)
  %90 = load ptr, ptr %5, align 8, !tbaa !4
  %91 = getelementptr inbounds nuw %struct.AVCodecContext, ptr %90, i32 0, i32 20
  %92 = load i32, ptr %91, align 8, !tbaa !83
  %93 = ashr i32 %92, 4
  %94 = load ptr, ptr %8, align 8, !tbaa !29
  %95 = getelementptr inbounds nuw %struct.AGMContext, ptr %94, i32 0, i32 7
  store i32 %93, ptr %95, align 4, !tbaa !104
  %96 = load ptr, ptr %5, align 8, !tbaa !4
  %97 = getelementptr inbounds nuw %struct.AVCodecContext, ptr %96, i32 0, i32 21
  %98 = load i32, ptr %97, align 4, !tbaa !81
  %99 = ashr i32 %98, 4
  %100 = load ptr, ptr %8, align 8, !tbaa !29
  %101 = getelementptr inbounds nuw %struct.AGMContext, ptr %100, i32 0, i32 8
  store i32 %99, ptr %101, align 8, !tbaa !105
  %102 = load ptr, ptr %8, align 8, !tbaa !29
  %103 = load ptr, ptr %6, align 8, !tbaa !53
  %104 = load ptr, ptr %8, align 8, !tbaa !29
  %105 = getelementptr inbounds nuw %struct.AGMContext, ptr %104, i32 0, i32 9
  %106 = getelementptr inbounds [3 x i32], ptr %105, i64 0, i64 2
  %107 = load i32, ptr %106, align 4, !tbaa !60
  %108 = load ptr, ptr %8, align 8, !tbaa !29
  %109 = getelementptr inbounds nuw %struct.AGMContext, ptr %108, i32 0, i32 23
  %110 = getelementptr inbounds [64 x i32], ptr %109, i64 0, i64 0
  %111 = load ptr, ptr %7, align 8, !tbaa !49
  %112 = call i32 @decode_intra_plane(ptr noundef %102, ptr noundef %103, i32 noundef %107, ptr noundef %110, ptr noundef %111, i32 noundef 1)
  store i32 %112, ptr %9, align 4, !tbaa !60
  %113 = load i32, ptr %9, align 4, !tbaa !60
  %114 = icmp slt i32 %113, 0
  br i1 %114, label %115, label %117

115:                                              ; preds = %83
  %116 = load i32, ptr %9, align 4, !tbaa !60
  store i32 %116, ptr %4, align 4
  store i32 1, ptr %10, align 4
  br label %118

117:                                              ; preds = %83
  store i32 0, ptr %4, align 4
  store i32 1, ptr %10, align 4
  br label %118

118:                                              ; preds = %117, %115, %81, %47
  call void @llvm.lifetime.end.p0(i64 4, ptr %9) #10
  call void @llvm.lifetime.end.p0(i64 8, ptr %8) #10
  %119 = load i32, ptr %4, align 4
  ret i32 %119
}