; Function Attrs: nounwind uwtable
define internal fastcc range(i32 -1094995529, 1) i32 @decode_intra(ptr noundef readonly captures(none) %0, ptr noundef captures(none) initializes((0, 28)) %1, ptr noundef readonly captures(none) %2) unnamed_addr #1 {
  %4 = getelementptr inbounds nuw i8, ptr %0, i64 32
  %5 = load ptr, ptr %4, align 8, !tbaa !4
  %6 = getelementptr inbounds nuw i8, ptr %5, i64 80
  %7 = load i32, ptr %6, align 16, !tbaa !89
  %8 = shl nsw i32 %7, 1
  %9 = add nsw i32 %8, -100
  %10 = sitofp i32 %9 to double
  %11 = fdiv nsz double %10, 1.000000e+02
  tail call fastcc void @compute_quant_matrix(ptr noundef %5, double noundef %11)
  %12 = getelementptr inbounds nuw i8, ptr %0, i64 120
  %13 = load i32, ptr %12, align 8, !tbaa !95
  %14 = ashr i32 %13, 3
  %15 = getelementptr inbounds nuw i8, ptr %5, i64 84
  store i32 %14, ptr %15, align 4, !tbaa !106
  %16 = getelementptr inbounds nuw i8, ptr %0, i64 124
  %17 = load i32, ptr %16, align 4, !tbaa !93
  %18 = ashr i32 %17, 3
  %19 = getelementptr inbounds nuw i8, ptr %5, i64 88
  store i32 %18, ptr %19, align 8, !tbaa !107
  %20 = getelementptr inbounds nuw i8, ptr %5, i64 92
  %21 = load i32, ptr %20, align 4, !tbaa !72
  %22 = getelementptr inbounds nuw i8, ptr %5, i64 192
  %23 = tail call fastcc i32 @decode_intra_plane(ptr noundef %5, ptr noundef %1, i32 noundef %21, ptr noundef nonnull %22, ptr noundef %2, i32 noundef 0)
  %24 = icmp slt i32 %23, 0
  br i1 %24, label %61, label %25

25:                                               ; preds = %3
  %26 = getelementptr inbounds nuw i8, ptr %5, i64 48
  %27 = load i32, ptr %20, align 4, !tbaa !72
  %28 = getelementptr inbounds nuw i8, ptr %5, i64 56
  %29 = load ptr, ptr %28, align 8, !tbaa !50
  %30 = load ptr, ptr %26, align 8, !tbaa !53
  %31 = ptrtoint ptr %29 to i64
  %32 = ptrtoint ptr %30 to i64
  %33 = sub i64 %31, %32
  %34 = zext i32 %27 to i64
  %..i43 = tail call i64 @llvm.smin.i64(i64 %33, i64 %34)
  %35 = getelementptr inbounds i8, ptr %30, i64 %..i43
  store ptr %35, ptr %26, align 8, !tbaa !53
  %36 = load i32, ptr %12, align 8, !tbaa !95
  %37 = ashr i32 %36, 4
  store i32 %37, ptr %15, align 4, !tbaa !106
  %38 = load i32, ptr %16, align 4, !tbaa !93
  %39 = ashr i32 %38, 4
  store i32 %39, ptr %19, align 8, !tbaa !107
  %40 = getelementptr inbounds nuw i8, ptr %5, i64 96
  %41 = load i32, ptr %40, align 4, !tbaa !72
  %42 = getelementptr inbounds nuw i8, ptr %5, i64 448
  %43 = tail call fastcc i32 @decode_intra_plane(ptr noundef nonnull %5, ptr noundef %1, i32 noundef %41, ptr noundef nonnull %42, ptr noundef %2, i32 noundef 2)
  %44 = icmp slt i32 %43, 0
  br i1 %44, label %61, label %45

45:                                               ; preds = %25
  %46 = load i32, ptr %40, align 4, !tbaa !72
  %47 = load ptr, ptr %28, align 8, !tbaa !50
  %48 = load ptr, ptr %26, align 8, !tbaa !53
  %49 = ptrtoint ptr %47 to i64
  %50 = ptrtoint ptr %48 to i64
  %51 = sub i64 %49, %50
  %52 = zext i32 %46 to i64
  %..i = tail call i64 @llvm.smin.i64(i64 %51, i64 %52)
  %53 = getelementptr inbounds i8, ptr %48, i64 %..i
  store ptr %53, ptr %26, align 8, !tbaa !53
  %54 = load i32, ptr %12, align 8, !tbaa !95
  %55 = ashr i32 %54, 4
  store i32 %55, ptr %15, align 4, !tbaa !106
  %56 = load i32, ptr %16, align 4, !tbaa !93
  %57 = ashr i32 %56, 4
  store i32 %57, ptr %19, align 8, !tbaa !107
  %58 = getelementptr inbounds nuw i8, ptr %5, i64 100
  %59 = load i32, ptr %58, align 4, !tbaa !72
  %60 = tail call fastcc i32 @decode_intra_plane(ptr noundef nonnull %5, ptr noundef %1, i32 noundef %59, ptr noundef nonnull %42, ptr noundef %2, i32 noundef 1)
  br label %61

61:                                               ; preds = %45, %25, %3
  %.0 = phi i32 [ %23, %3 ], [ %43, %25 ], [ %60, %45 ]
  ret i32 %.0
}